   1              		.cpu arm7tdmi
   2              		.fpu softvfp
   3              		.eabi_attribute 20, 1
   4              		.eabi_attribute 21, 1
   5              		.eabi_attribute 23, 3
   6              		.eabi_attribute 24, 1
   7              		.eabi_attribute 25, 1
   8              		.eabi_attribute 26, 1
   9              		.eabi_attribute 30, 6
  10              		.eabi_attribute 18, 4
  11              		.file	"segs.c"
  21              	.Ltext0:
  22              		.file 1 "../segs.c"
 2002              		.align	2
 2005              	hex2segs:
 2006 0000 12       		.byte	18
 2007 0001 9F       		.byte	-97
 2008 0002 31       		.byte	49
 2009 0003 15       		.byte	21
 2010 0004 9C       		.byte	-100
 2011 0005 54       		.byte	84
 2012 0006 50       		.byte	80
 2013 0007 1F       		.byte	31
 2014 0008 10       		.byte	16
 2015 0009 14       		.byte	20
 2016 000a 18       		.byte	24
 2017 000b D0       		.byte	-48
 2018 000c 72       		.byte	114
 2019 000d 91       		.byte	-111
 2020 000e 70       		.byte	112
 2021 000f 78       		.byte	120
 2022              		.bss
 2023              	state:
 2024 0000 00       		.space	1
 2025              		.text
 2026              		.align	2
 2027              		.global	segs_init
 2029              	segs_init:
 2030              	.LFB0:
   1:../segs.c     **** /*
   2:../segs.c     ****  * segs.c
   3:../segs.c     ****  *
   4:../segs.c     ****  *  Created on: Sep 26, 2022
   5:../segs.c     ****  *      Author: Alejandro Luque Villegas, Ignacio Sanchez Santatecla
   6:../segs.c     ****  */
   7:../segs.c     **** 
   8:../segs.c     **** #include <s3c44b0x.h>
   9:../segs.c     **** #include <s3cev40.h>
  10:../segs.c     **** #include <segs.h>
  11:../segs.c     **** 
  12:../segs.c     **** static const uint8 hex2segs[16] = {0x12, 0x9F, 0x31, 0x15, 0x9C, 0x54, 0x50, 0x1F,
  13:../segs.c     **** 									0x10, 0x14, 0x18, 0xD0, 0x72, 0x91, 0x70, 0x78};
  14:../segs.c     **** static uint8 state;
  15:../segs.c     **** 
  16:../segs.c     **** void segs_init(void){
 2031              		.loc 1 16 0
 2032              		.cfi_startproc
 2033              		@ Function supports interworking.
 2034              		@ args = 0, pretend = 0, frame = 0
 2035              		@ frame_needed = 1, uses_anonymous_args = 0
 2036 0000 0DC0A0E1 		mov	ip, sp
 2037              	.LCFI0:
 2038              		.cfi_def_cfa_register 12
 2039 0004 00D82DE9 		stmfd	sp!, {fp, ip, lr, pc}
 2040 0008 04B04CE2 		sub	fp, ip, #4
 2041              		.cfi_offset 14, -8
 2042              		.cfi_offset 13, -12
 2043              		.cfi_offset 11, -16
 2044              	.LCFI1:
 2045              		.cfi_def_cfa 11, 4
  17:../segs.c     **** 	segs_off();
 2046              		.loc 1 17 0
 2047 000c FEFFFFEB 		bl	segs_off
  18:../segs.c     **** }
 2048              		.loc 1 18 0
 2049 0010 0CD04BE2 		sub	sp, fp, #12
 2050 0014 00689DE8 		ldmfd	sp, {fp, sp, lr}
 2051 0018 1EFF2FE1 		bx	lr
 2052              		.cfi_endproc
 2053              	.LFE0:
 2055              		.align	2
 2056              		.global	segs_off
 2058              	segs_off:
 2059              	.LFB1:
  19:../segs.c     **** 
  20:../segs.c     **** void segs_off(void){
 2060              		.loc 1 20 0
 2061              		.cfi_startproc
 2062              		@ Function supports interworking.
 2063              		@ args = 0, pretend = 0, frame = 0
 2064              		@ frame_needed = 1, uses_anonymous_args = 0
 2065 001c 0DC0A0E1 		mov	ip, sp
 2066              	.LCFI2:
 2067              		.cfi_def_cfa_register 12
 2068 0020 00D82DE9 		stmfd	sp!, {fp, ip, lr, pc}
 2069 0024 04B04CE2 		sub	fp, ip, #4
 2070              		.cfi_offset 14, -8
 2071              		.cfi_offset 13, -12
 2072              		.cfi_offset 11, -16
 2073              	.LCFI3:
 2074              		.cfi_def_cfa 11, 4
  21:../segs.c     **** 	state = SEGS_OFF;
 2075              		.loc 1 21 0
 2076 0028 20309FE5 		ldr	r3, .L3
 2077 002c 0020E0E3 		mvn	r2, #0
 2078 0030 0020C3E5 		strb	r2, [r3, #0]
  22:../segs.c     **** 	SEGS = state;
 2079              		.loc 1 22 0
 2080 0034 8537A0E3 		mov	r3, #34865152
 2081 0038 10209FE5 		ldr	r2, .L3
 2082 003c 0020D2E5 		ldrb	r2, [r2, #0]	@ zero_extendqisi2
 2083 0040 0020C3E5 		strb	r2, [r3, #0]
  23:../segs.c     **** }
 2084              		.loc 1 23 0
 2085 0044 0CD04BE2 		sub	sp, fp, #12
 2086 0048 00689DE8 		ldmfd	sp, {fp, sp, lr}
 2087 004c 1EFF2FE1 		bx	lr
 2088              	.L4:
 2089              		.align	2
 2090              	.L3:
 2091 0050 00000000 		.word	state
 2092              		.cfi_endproc
 2093              	.LFE1:
 2095              		.align	2
 2096              		.global	segs_putchar
 2098              	segs_putchar:
 2099              	.LFB2:
  24:../segs.c     **** 
  25:../segs.c     **** void segs_putchar(uint8 n){
 2100              		.loc 1 25 0
 2101              		.cfi_startproc
 2102              		@ Function supports interworking.
 2103              		@ args = 0, pretend = 0, frame = 8
 2104              		@ frame_needed = 1, uses_anonymous_args = 0
 2105 0054 0DC0A0E1 		mov	ip, sp
 2106              	.LCFI4:
 2107              		.cfi_def_cfa_register 12
 2108 0058 00D82DE9 		stmfd	sp!, {fp, ip, lr, pc}
 2109 005c 04B04CE2 		sub	fp, ip, #4
 2110              		.cfi_offset 14, -8
 2111              		.cfi_offset 13, -12
 2112              		.cfi_offset 11, -16
 2113              	.LCFI5:
 2114              		.cfi_def_cfa 11, 4
 2115 0060 08D04DE2 		sub	sp, sp, #8
 2116 0064 0030A0E1 		mov	r3, r0
 2117 0068 0D304BE5 		strb	r3, [fp, #-13]
  26:../segs.c     **** 	state = n & 0x0f;
 2118              		.loc 1 26 0
 2119 006c 0D305BE5 		ldrb	r3, [fp, #-13]
 2120 0070 0F3003E2 		and	r3, r3, #15
 2121 0074 FF2003E2 		and	r2, r3, #255
 2122 0078 24309FE5 		ldr	r3, .L6
 2123 007c 0020C3E5 		strb	r2, [r3, #0]
  27:../segs.c     **** 	SEGS = hex2segs[state];
 2124              		.loc 1 27 0
 2125 0080 8537A0E3 		mov	r3, #34865152
 2126 0084 18209FE5 		ldr	r2, .L6
 2127 0088 0020D2E5 		ldrb	r2, [r2, #0]	@ zero_extendqisi2
 2128 008c 14109FE5 		ldr	r1, .L6+4
 2129 0090 0220D1E7 		ldrb	r2, [r1, r2]	@ zero_extendqisi2
 2130 0094 0020C3E5 		strb	r2, [r3, #0]
  28:../segs.c     **** }
 2131              		.loc 1 28 0
 2132 0098 0CD04BE2 		sub	sp, fp, #12
 2133 009c 00689DE8 		ldmfd	sp, {fp, sp, lr}
 2134 00a0 1EFF2FE1 		bx	lr
 2135              	.L7:
 2136              		.align	2
 2137              	.L6:
 2138 00a4 00000000 		.word	state
 2139 00a8 00000000 		.word	hex2segs
 2140              		.cfi_endproc
 2141              	.LFE2:
 2143              		.align	2
 2144              		.global	segs_status
 2146              	segs_status:
 2147              	.LFB3:
  29:../segs.c     **** 
  30:../segs.c     **** uint8 segs_status(void){
 2148              		.loc 1 30 0
 2149              		.cfi_startproc
 2150              		@ Function supports interworking.
 2151              		@ args = 0, pretend = 0, frame = 0
 2152              		@ frame_needed = 1, uses_anonymous_args = 0
 2153 00ac 0DC0A0E1 		mov	ip, sp
 2154              	.LCFI6:
 2155              		.cfi_def_cfa_register 12
 2156 00b0 00D82DE9 		stmfd	sp!, {fp, ip, lr, pc}
 2157 00b4 04B04CE2 		sub	fp, ip, #4
 2158              		.cfi_offset 14, -8
 2159              		.cfi_offset 13, -12
 2160              		.cfi_offset 11, -16
 2161              	.LCFI7:
 2162              		.cfi_def_cfa 11, 4
  31:../segs.c     **** 	return state;
 2163              		.loc 1 31 0
 2164 00b8 10309FE5 		ldr	r3, .L9
 2165 00bc 0030D3E5 		ldrb	r3, [r3, #0]	@ zero_extendqisi2
  32:../segs.c     **** }
 2166              		.loc 1 32 0
 2167 00c0 0300A0E1 		mov	r0, r3
 2168 00c4 0CD04BE2 		sub	sp, fp, #12
 2169 00c8 00689DE8 		ldmfd	sp, {fp, sp, lr}
 2170 00cc 1EFF2FE1 		bx	lr
 2171              	.L10:
 2172              		.align	2
 2173              	.L9:
 2174 00d0 00000000 		.word	state
 2175              		.cfi_endproc
 2176              	.LFE3:
 2178              	.Letext0: