   1              		.cpu arm7tdmi
   2              		.fpu softvfp
   3              		.eabi_attribute 20, 1
   4              		.eabi_attribute 21, 1
   5              		.eabi_attribute 23, 3
   6              		.eabi_attribute 24, 1
   7              		.eabi_attribute 25, 1
   8              		.eabi_attribute 26, 1
   9              		.eabi_attribute 30, 6
  10              		.eabi_attribute 18, 4
  11              		.file	"segs.c"
  21              	.Ltext0:
  22              		.file 1 "../src/segs.c"
 1906              		.align	2
 1909              	hex2segs:
 1910 0000 12       		.byte	18
 1911 0001 9F       		.byte	-97
 1912 0002 31       		.byte	49
 1913 0003 15       		.byte	21
 1914 0004 9C       		.byte	-100
 1915 0005 54       		.byte	84
 1916 0006 50       		.byte	80
 1917 0007 1F       		.byte	31
 1918 0008 10       		.byte	16
 1919 0009 14       		.byte	20
 1920 000a 18       		.byte	24
 1921 000b D0       		.byte	-48
 1922 000c 72       		.byte	114
 1923 000d 91       		.byte	-111
 1924 000e 70       		.byte	112
 1925 000f 78       		.byte	120
 1926              		.bss
 1927              	state:
 1928 0000 00       		.space	1
 1929              		.text
 1930              		.align	2
 1931              		.global	segs_init
 1933              	segs_init:
 1934              	.LFB0:
   1:../src/segs.c **** /*
   2:../src/segs.c ****  * segs.c
   3:../src/segs.c ****  *
   4:../src/segs.c ****  *  Created on: Sep 26, 2022
   5:../src/segs.c ****  *      Author: Alejandro Luque Villegas, Ignacio Sanchez Santatecla
   6:../src/segs.c ****  */
   7:../src/segs.c **** 
   8:../src/segs.c **** #include <s3c44b0x.h>
   9:../src/segs.c **** #include <s3cev40.h>
  10:../src/segs.c **** #include <segs.h>
  11:../src/segs.c **** 
  12:../src/segs.c **** static const uint8 hex2segs[16] = {0x12, 0x9F, 0x31, 0x15, 0x9C, 0x54, 0x50, 0x1F,
  13:../src/segs.c **** 									0x10, 0x14, 0x18, 0xD0, 0x72, 0x91, 0x70, 0x78};
  14:../src/segs.c **** static uint8 state;
  15:../src/segs.c **** 
  16:../src/segs.c **** void segs_init(void){
 1935              		.loc 1 16 0
 1936              		.cfi_startproc
 1937              		@ Function supports interworking.
 1938              		@ args = 0, pretend = 0, frame = 0
 1939              		@ frame_needed = 1, uses_anonymous_args = 0
 1940 0000 0DC0A0E1 		mov	ip, sp
 1941              	.LCFI0:
 1942              		.cfi_def_cfa_register 12
 1943 0004 00D82DE9 		stmfd	sp!, {fp, ip, lr, pc}
 1944 0008 04B04CE2 		sub	fp, ip, #4
 1945              		.cfi_offset 14, -8
 1946              		.cfi_offset 13, -12
 1947              		.cfi_offset 11, -16
 1948              	.LCFI1:
 1949              		.cfi_def_cfa 11, 4
  17:../src/segs.c **** 	segs_off();
 1950              		.loc 1 17 0
 1951 000c FEFFFFEB 		bl	segs_off
  18:../src/segs.c **** }
 1952              		.loc 1 18 0
 1953 0010 0CD04BE2 		sub	sp, fp, #12
 1954 0014 00689DE8 		ldmfd	sp, {fp, sp, lr}
 1955 0018 1EFF2FE1 		bx	lr
 1956              		.cfi_endproc
 1957              	.LFE0:
 1959              		.align	2
 1960              		.global	segs_off
 1962              	segs_off:
 1963              	.LFB1:
  19:../src/segs.c **** 
  20:../src/segs.c **** void segs_off(void){
 1964              		.loc 1 20 0
 1965              		.cfi_startproc
 1966              		@ Function supports interworking.
 1967              		@ args = 0, pretend = 0, frame = 0
 1968              		@ frame_needed = 1, uses_anonymous_args = 0
 1969 001c 0DC0A0E1 		mov	ip, sp
 1970              	.LCFI2:
 1971              		.cfi_def_cfa_register 12
 1972 0020 00D82DE9 		stmfd	sp!, {fp, ip, lr, pc}
 1973 0024 04B04CE2 		sub	fp, ip, #4
 1974              		.cfi_offset 14, -8
 1975              		.cfi_offset 13, -12
 1976              		.cfi_offset 11, -16
 1977              	.LCFI3:
 1978              		.cfi_def_cfa 11, 4
  21:../src/segs.c **** 	state = SEGS_OFF;
 1979              		.loc 1 21 0
 1980 0028 20309FE5 		ldr	r3, .L3
 1981 002c 0020E0E3 		mvn	r2, #0
 1982 0030 0020C3E5 		strb	r2, [r3, #0]
  22:../src/segs.c **** 	SEGS = state;
 1983              		.loc 1 22 0
 1984 0034 8537A0E3 		mov	r3, #34865152
 1985 0038 10209FE5 		ldr	r2, .L3
 1986 003c 0020D2E5 		ldrb	r2, [r2, #0]	@ zero_extendqisi2
 1987 0040 0020C3E5 		strb	r2, [r3, #0]
  23:../src/segs.c **** }
 1988              		.loc 1 23 0
 1989 0044 0CD04BE2 		sub	sp, fp, #12
 1990 0048 00689DE8 		ldmfd	sp, {fp, sp, lr}
 1991 004c 1EFF2FE1 		bx	lr
 1992              	.L4:
 1993              		.align	2
 1994              	.L3:
 1995 0050 00000000 		.word	state
 1996              		.cfi_endproc
 1997              	.LFE1:
 1999              		.align	2
 2000              		.global	segs_putchar
 2002              	segs_putchar:
 2003              	.LFB2:
  24:../src/segs.c **** 
  25:../src/segs.c **** void segs_putchar(uint8 n){
 2004              		.loc 1 25 0
 2005              		.cfi_startproc
 2006              		@ Function supports interworking.
 2007              		@ args = 0, pretend = 0, frame = 8
 2008              		@ frame_needed = 1, uses_anonymous_args = 0
 2009 0054 0DC0A0E1 		mov	ip, sp
 2010              	.LCFI4:
 2011              		.cfi_def_cfa_register 12
 2012 0058 00D82DE9 		stmfd	sp!, {fp, ip, lr, pc}
 2013 005c 04B04CE2 		sub	fp, ip, #4
 2014              		.cfi_offset 14, -8
 2015              		.cfi_offset 13, -12
 2016              		.cfi_offset 11, -16
 2017              	.LCFI5:
 2018              		.cfi_def_cfa 11, 4
 2019 0060 08D04DE2 		sub	sp, sp, #8
 2020 0064 0030A0E1 		mov	r3, r0
 2021 0068 0D304BE5 		strb	r3, [fp, #-13]
  26:../src/segs.c **** 	state = n & 0x0f;
 2022              		.loc 1 26 0
 2023 006c 0D305BE5 		ldrb	r3, [fp, #-13]
 2024 0070 0F3003E2 		and	r3, r3, #15
 2025 0074 FF2003E2 		and	r2, r3, #255
 2026 0078 24309FE5 		ldr	r3, .L6
 2027 007c 0020C3E5 		strb	r2, [r3, #0]
  27:../src/segs.c **** 	SEGS = hex2segs[state];
 2028              		.loc 1 27 0
 2029 0080 8537A0E3 		mov	r3, #34865152
 2030 0084 18209FE5 		ldr	r2, .L6
 2031 0088 0020D2E5 		ldrb	r2, [r2, #0]	@ zero_extendqisi2
 2032 008c 14109FE5 		ldr	r1, .L6+4
 2033 0090 0220D1E7 		ldrb	r2, [r1, r2]	@ zero_extendqisi2
 2034 0094 0020C3E5 		strb	r2, [r3, #0]
  28:../src/segs.c **** }
 2035              		.loc 1 28 0
 2036 0098 0CD04BE2 		sub	sp, fp, #12
 2037 009c 00689DE8 		ldmfd	sp, {fp, sp, lr}
 2038 00a0 1EFF2FE1 		bx	lr
 2039              	.L7:
 2040              		.align	2
 2041              	.L6:
 2042 00a4 00000000 		.word	state
 2043 00a8 00000000 		.word	hex2segs
 2044              		.cfi_endproc
 2045              	.LFE2:
 2047              		.align	2
 2048              		.global	segs_status
 2050              	segs_status:
 2051              	.LFB3:
  29:../src/segs.c **** 
  30:../src/segs.c **** uint8 segs_status(void){
 2052              		.loc 1 30 0
 2053              		.cfi_startproc
 2054              		@ Function supports interworking.
 2055              		@ args = 0, pretend = 0, frame = 0
 2056              		@ frame_needed = 1, uses_anonymous_args = 0
 2057 00ac 0DC0A0E1 		mov	ip, sp
 2058              	.LCFI6:
 2059              		.cfi_def_cfa_register 12
 2060 00b0 00D82DE9 		stmfd	sp!, {fp, ip, lr, pc}
 2061 00b4 04B04CE2 		sub	fp, ip, #4
 2062              		.cfi_offset 14, -8
 2063              		.cfi_offset 13, -12
 2064              		.cfi_offset 11, -16
 2065              	.LCFI7:
 2066              		.cfi_def_cfa 11, 4
  31:../src/segs.c **** 	return state;
 2067              		.loc 1 31 0
 2068 00b8 10309FE5 		ldr	r3, .L9
 2069 00bc 0030D3E5 		ldrb	r3, [r3, #0]	@ zero_extendqisi2
  32:../src/segs.c **** }
 2070              		.loc 1 32 0
 2071 00c0 0300A0E1 		mov	r0, r3
 2072 00c4 0CD04BE2 		sub	sp, fp, #12
 2073 00c8 00689DE8 		ldmfd	sp, {fp, sp, lr}
 2074 00cc 1EFF2FE1 		bx	lr
 2075              	.L10:
 2076              		.align	2
 2077              	.L9:
 2078 00d0 00000000 		.word	state
 2079              		.cfi_endproc
 2080              	.LFE3:
 2082              	.Letext0: