   1              		.cpu arm7tdmi
   2              		.fpu softvfp
   3              		.eabi_attribute 20, 1
   4              		.eabi_attribute 21, 1
   5              		.eabi_attribute 23, 3
   6              		.eabi_attribute 24, 1
   7              		.eabi_attribute 25, 1
   8              		.eabi_attribute 26, 1
   9              		.eabi_attribute 30, 6
  10              		.eabi_attribute 18, 4
  11              		.file	"lab1.c"
  21              	.Ltext0:
  22              		.file 1 "../lab1.c"
 969              		.align	2
 972              	hex2segs:
 973 0000 12       		.byte	18
 974 0001 9F       		.byte	-97
 975 0002 31       		.byte	49
 976 0003 15       		.byte	21
 977 0004 9C       		.byte	-100
 978 0005 54       		.byte	84
 979 0006 50       		.byte	80
 980 0007 1F       		.byte	31
 981 0008 10       		.byte	16
 982 0009 14       		.byte	20
 983 000a 18       		.byte	24
 984 000b D0       		.byte	-48
 985 000c 72       		.byte	114
 986 000d 91       		.byte	-111
 987 000e 70       		.byte	112
 988 000f 78       		.byte	120
 989              		.text
 990              		.align	2
 991              		.global	main
 993              	main:
 994              	.LFB0:
   1:../lab1.c     **** /*-------------------------------------------------------------------
   2:../lab1.c     **** **
   3:../lab1.c     **** **  Fichero:
   4:../lab1.c     **** **    lab1.c  25/8/2016
   5:../lab1.c     **** **
   6:../lab1.c     **** **    (c) J.M. Mendias
   7:../lab1.c     **** **    Programación de Sistemas y Dispositivos
   8:../lab1.c     **** **    Facultad de Informática. Universidad Complutense de Madrid
   9:../lab1.c     **** **
  10:../lab1.c     **** **  Propósito:
  11:../lab1.c     **** **    Test del laboratorio 1
  12:../lab1.c     **** **
  13:../lab1.c     **** **  Notas de diseño:
  14:../lab1.c     **** **    Presupone que todo el SoC ha sido previamente configurado
  15:../lab1.c     **** **    por el programa residente en ROM que se ejecuta tras reset
  16:../lab1.c     **** **
  17:../lab1.c     **** **-----------------------------------------------------------------*/
  18:../lab1.c     **** 
  19:../lab1.c     **** #define SEGS (*(volatile unsigned char *) 0x02140000 )
  20:../lab1.c     **** 
  21:../lab1.c     **** const unsigned char hex2segs[16] = {0x12, 0x9F, 0x31, 0x15, 0x9C, 0x54, 0x50, 0x1F,
  22:../lab1.c     **** 									0x10, 0x14, 0x18, 0xD0, 0x72, 0x91, 0x70, 0x78};
  23:../lab1.c     **** 
  24:../lab1.c     **** void main(void) 
  25:../lab1.c     **** {
 995              		.loc 1 25 0
 996              		.cfi_startproc
 997              		@ Function supports interworking.
 998              		@ args = 0, pretend = 0, frame = 8
 999              		@ frame_needed = 1, uses_anonymous_args = 0
 1000 0000 0DC0A0E1 		mov	ip, sp
 1001              	.LCFI0:
 1002              		.cfi_def_cfa_register 12
 1003 0004 00D82DE9 		stmfd	sp!, {fp, ip, lr, pc}
 1004 0008 04B04CE2 		sub	fp, ip, #4
 1005              		.cfi_offset 14, -8
 1006              		.cfi_offset 13, -12
 1007              		.cfi_offset 11, -16
 1008              	.LCFI1:
 1009              		.cfi_def_cfa 11, 4
 1010 000c 08D04DE2 		sub	sp, sp, #8
  26:../lab1.c     **** 
  27:../lab1.c     ****     unsigned char i;
  28:../lab1.c     ****     unsigned int j;
  29:../lab1.c     **** 
  30:../lab1.c     ****     SEGS = 0xff;
 1011              		.loc 1 30 0
 1012 0010 8537A0E3 		mov	r3, #34865152
 1013 0014 0020E0E3 		mvn	r2, #0
 1014 0018 0020C3E5 		strb	r2, [r3, #0]
 1015              	.L6:
  31:../lab1.c     ****     while( 1 )
  32:../lab1.c     ****         for( i=0; i<16; i++ )
 1016              		.loc 1 32 0
 1017 001c 0030A0E3 		mov	r3, #0
 1018 0020 0D304BE5 		strb	r3, [fp, #-13]
 1019 0024 110000EA 		b	.L2
 1020              	.L5:
  33:../lab1.c     ****         {
  34:../lab1.c     ****             for( j=0; j<300000; j++ );
 1021              		.loc 1 34 0
 1022 0028 0030A0E3 		mov	r3, #0
 1023 002c 14300BE5 		str	r3, [fp, #-20]
 1024 0030 020000EA 		b	.L3
 1025              	.L4:
 1026              		.loc 1 34 0 is_stmt 0 discriminator 2
 1027 0034 14301BE5 		ldr	r3, [fp, #-20]
 1028 0038 013083E2 		add	r3, r3, #1
 1029 003c 14300BE5 		str	r3, [fp, #-20]
 1030              	.L3:
 1031              		.loc 1 34 0 discriminator 1
 1032 0040 14201BE5 		ldr	r2, [fp, #-20]
 1033 0044 34309FE5 		ldr	r3, .L7
 1034 0048 030052E1 		cmp	r2, r3
 1035 004c F8FFFF9A 		bls	.L4
  35:../lab1.c     ****                 SEGS = hex2segs[i];
 1036              		.loc 1 35 0 is_stmt 1
 1037 0050 8537A0E3 		mov	r3, #34865152
 1038 0054 0D205BE5 		ldrb	r2, [fp, #-13]	@ zero_extendqisi2
 1039 0058 24109FE5 		ldr	r1, .L7+4
 1040 005c 0220D1E7 		ldrb	r2, [r1, r2]	@ zero_extendqisi2
 1041 0060 0020C3E5 		strb	r2, [r3, #0]
  32:../lab1.c     ****         for( i=0; i<16; i++ )
 1042              		.loc 1 32 0
 1043 0064 0D305BE5 		ldrb	r3, [fp, #-13]
 1044 0068 013083E2 		add	r3, r3, #1
 1045 006c 0D304BE5 		strb	r3, [fp, #-13]
 1046              	.L2:
  32:../lab1.c     ****         for( i=0; i<16; i++ )
 1047              		.loc 1 32 0 is_stmt 0 discriminator 1
 1048 0070 0D305BE5 		ldrb	r3, [fp, #-13]	@ zero_extendqisi2
 1049 0074 0F0053E3 		cmp	r3, #15
 1050 0078 EAFFFF9A 		bls	.L5
  36:../lab1.c     ****         }
 1051              		.loc 1 36 0 is_stmt 1
 1052 007c E6FFFFEA 		b	.L6
 1053              	.L8:
 1054              		.align	2
 1055              	.L7:
 1056 0080 DF930400 		.word	299999
 1057 0084 00000000 		.word	hex2segs
 1058              		.cfi_endproc
 1059              	.LFE0:
 1061              	.Letext0: